target datalayout = "e-m:e-p270:32:32-p271:32:32-p272:64:64-i64:64-i128:128-f80:128-n8:16:32:64-S128"
target triple = "x86_64-pc-linux-gnu"

@.str.2 = private unnamed_addr constant [11 x i8] c"worldToNDC\00", align 1
@_ZTIN7Imf_3_49AttributeE = external constant ptr
@.str.56 = private unnamed_addr constant [27 x i8] c"Unexpected attribute type.\00", align 1
@_ZTIN7Iex_3_47TypeExcE = external constant ptr
@_ZTIN7Imf_3_414TypedAttributeIN9Imath_3_28Matrix44IfEEEE = external constant ptr

; Function Attrs: mustprogress uwtable
define linkonce_odr noundef nonnull align 8 dereferenceable(72) ptr @_ZNK7Imf_3_46Header14typedAttributeINS_14TypedAttributeIN9Imath_3_28Matrix44IfEEEEEERKT_PKc(ptr noundef nonnull align 8 dereferenceable(49) %0, ptr noundef %1) #4 comdat align 2 personality ptr @__gxx_personality_v0 {
  %3 = alloca ptr, align 8
  %4 = alloca ptr, align 8
  %5 = alloca ptr, align 8
  %6 = alloca ptr, align 8
  %7 = alloca ptr, align 8
  %8 = alloca i32, align 4
  store ptr %0, ptr %3, align 8, !tbaa !3
  store ptr %1, ptr %4, align 8, !tbaa !10
  %9 = load ptr, ptr %3, align 8
  call void @llvm.lifetime.start.p0(i64 8, ptr %5) #3
  %10 = load ptr, ptr %4, align 8, !tbaa !10
  %11 = call noundef nonnull align 8 dereferenceable(8) ptr @_ZNK7Imf_3_46HeaderixEPKc(ptr noundef nonnull align 8 dereferenceable(49) %9, ptr noundef %10)
  store ptr %11, ptr %5, align 8, !tbaa !16
  call void @llvm.lifetime.start.p0(i64 8, ptr %6) #3
  %12 = load ptr, ptr %5, align 8, !tbaa !16
  %13 = icmp eq ptr %12, null
  br i1 %13, label %16, label %14

14:                                               ; preds = %2
  %15 = call ptr @__dynamic_cast(ptr %12, ptr @_ZTIN7Imf_3_49AttributeE, ptr @_ZTIN7Imf_3_414TypedAttributeIN9Imath_3_28Matrix44IfEEEE, i64 0) #3
  br label %17

16:                                               ; preds = %2
  br label %17

17:                                               ; preds = %16, %14
  %18 = phi ptr [ %15, %14 ], [ null, %16 ]
  store ptr %18, ptr %6, align 8, !tbaa !21
  %19 = load ptr, ptr %6, align 8, !tbaa !21
  %20 = icmp eq ptr %19, null
  br i1 %20, label %21, label %28

21:                                               ; preds = %17
  %22 = call ptr @__cxa_allocate_exception(i64 72) #3
  invoke void @_ZN7Iex_3_47TypeExcC1EPKc(ptr noundef nonnull align 8 dereferenceable(72) %22, ptr noundef @.str.56)
          to label %23 unwind label %24

23:                                               ; preds = %21
  call void @__cxa_throw(ptr %22, ptr @_ZTIN7Iex_3_47TypeExcE, ptr @_ZN7Iex_3_47TypeExcD1Ev) #12
  unreachable

24:                                               ; preds = %21
  %25 = landingpad { ptr, i32 }
          cleanup
  %26 = extractvalue { ptr, i32 } %25, 0
  store ptr %26, ptr %7, align 8
  %27 = extractvalue { ptr, i32 } %25, 1
  store i32 %27, ptr %8, align 4
  call void @__cxa_free_exception(ptr %22) #3
  call void @llvm.lifetime.end.p0(i64 8, ptr %6) #3
  call void @llvm.lifetime.end.p0(i64 8, ptr %5) #3
  br label %30

28:                                               ; preds = %17
  %29 = load ptr, ptr %6, align 8, !tbaa !21
  call void @llvm.lifetime.end.p0(i64 8, ptr %6) #3
  call void @llvm.lifetime.end.p0(i64 8, ptr %5) #3
  ret ptr %29

30:                                               ; preds = %24
  %31 = load ptr, ptr %7, align 8
  %32 = load i32, ptr %8, align 4
  %33 = insertvalue { ptr, i32 } poison, ptr %31, 0
  %34 = insertvalue { ptr, i32 } %33, i32 %32, 1
  resume { ptr, i32 } %34
}

; Function Attrs: mustprogress uwtable
define noundef nonnull align 8 dereferenceable(72) ptr @_ZN7Imf_3_419worldToNDCAttributeERKNS_6HeaderE(ptr noundef nonnull align 8 dereferenceable(49) %0) #4 {
  %2 = alloca ptr, align 8
  store ptr %0, ptr %2, align 8, !tbaa !3
  %3 = load ptr, ptr %2, align 8, !tbaa !3
  %4 = call noundef nonnull align 8 dereferenceable(72) ptr @_ZNK7Imf_3_46Header14typedAttributeINS_14TypedAttributeIN9Imath_3_28Matrix44IfEEEEEERKT_PKc(ptr noundef nonnull align 8 dereferenceable(49) %3, ptr noundef @.str.2)
  ret ptr %4
}